; Function Attrs: mustprogress nounwind uwtable
define hidden void @_ZNK4llvh2cl5alias15printOptionInfoEm(ptr nocapture noundef nonnull readonly align 8 dereferenceable(160) %this, i64 noundef %GlobalWidth) unnamed_addr #0 align 2 {
entry:
  %call = tail call noundef nonnull align 8 dereferenceable(36) ptr @_ZN4llvh4outsEv() #27
  %OutBufEnd.i5.i = getelementptr inbounds i8, ptr %call, i64 16
  %0 = load ptr, ptr %OutBufEnd.i5.i, align 8
  %OutBufCur.i6.i = getelementptr inbounds i8, ptr %call, i64 24
  %1 = load ptr, ptr %OutBufCur.i6.i, align 8
  %sub.ptr.lhs.cast.i7.i = ptrtoint ptr %0 to i64
  %sub.ptr.rhs.cast.i8.i = ptrtoint ptr %1 to i64
  %sub.ptr.sub.i9.i = sub i64 %sub.ptr.lhs.cast.i7.i, %sub.ptr.rhs.cast.i8.i
  %cmp.i.i = icmp ult i64 %sub.ptr.sub.i9.i, 3
  br i1 %cmp.i.i, label %if.then.i.i, label %if.then4.i.i

if.then.i.i:                                      ; preds = %entry
  %call3.i.i = tail call noundef nonnull align 8 dereferenceable(36) ptr @_ZN4llvh11raw_ostream5writeEPKcm(ptr noundef nonnull align 8 dereferenceable(36) %call, ptr noundef nonnull @.str.8, i64 noundef 3) #27
  %OutBufCur.i.phi.trans.insert = getelementptr inbounds i8, ptr %call3.i.i, i64 24
  %.pre = load ptr, ptr %OutBufCur.i.phi.trans.insert, align 8
  br label %_ZN4llvh11raw_ostreamlsEPKc.exit

if.then4.i.i:                                     ; preds = %entry
  tail call void @llvm.memcpy.p0.p0.i64(ptr noundef nonnull align 1 dereferenceable(3) %1, ptr noundef nonnull align 1 dereferenceable(3) @.str.8, i64 3, i1 false)
  %2 = load ptr, ptr %OutBufCur.i6.i, align 8
  %add.ptr.i.i = getelementptr inbounds i8, ptr %2, i64 3
  store ptr %add.ptr.i.i, ptr %OutBufCur.i6.i, align 8
  br label %_ZN4llvh11raw_ostreamlsEPKc.exit

_ZN4llvh11raw_ostreamlsEPKc.exit:                 ; preds = %if.then.i.i, %if.then4.i.i
  %3 = phi ptr [ %.pre, %if.then.i.i ], [ %add.ptr.i.i, %if.then4.i.i ]
  %phi.call.i = phi ptr [ %call3.i.i, %if.then.i.i ], [ %call, %if.then4.i.i ]
  %ArgStr = getelementptr inbounds i8, ptr %this, i64 24
  %agg.tmp.sroa.0.0.copyload = load ptr, ptr %ArgStr, align 8
  %agg.tmp.sroa.2.0.ArgStr.sroa_idx = getelementptr inbounds i8, ptr %this, i64 32
  %agg.tmp.sroa.2.0.copyload = load i64, ptr %agg.tmp.sroa.2.0.ArgStr.sroa_idx, align 8
  %OutBufEnd.i = getelementptr inbounds i8, ptr %phi.call.i, i64 16
  %4 = load ptr, ptr %OutBufEnd.i, align 8
  %OutBufCur.i = getelementptr inbounds i8, ptr %phi.call.i, i64 24
  %sub.ptr.lhs.cast.i = ptrtoint ptr %4 to i64
  %sub.ptr.rhs.cast.i = ptrtoint ptr %3 to i64
  %sub.ptr.sub.i = sub i64 %sub.ptr.lhs.cast.i, %sub.ptr.rhs.cast.i
  %cmp.i = icmp ult i64 %sub.ptr.sub.i, %agg.tmp.sroa.2.0.copyload
  br i1 %cmp.i, label %if.then.i, label %if.end.i

if.then.i:                                        ; preds = %_ZN4llvh11raw_ostreamlsEPKc.exit
  %call3.i = tail call noundef nonnull align 8 dereferenceable(36) ptr @_ZN4llvh11raw_ostream5writeEPKcm(ptr noundef nonnull align 8 dereferenceable(36) %phi.call.i, ptr noundef %agg.tmp.sroa.0.0.copyload, i64 noundef %agg.tmp.sroa.2.0.copyload) #27
  br label %_ZN4llvh11raw_ostreamlsENS_9StringRefE.exit

if.end.i:                                         ; preds = %_ZN4llvh11raw_ostreamlsEPKc.exit
  %tobool.not.i = icmp eq i64 %agg.tmp.sroa.2.0.copyload, 0
  br i1 %tobool.not.i, label %_ZN4llvh11raw_ostreamlsENS_9StringRefE.exit, label %if.then4.i

if.then4.i:                                       ; preds = %if.end.i
  tail call void @llvm.memcpy.p0.p0.i64(ptr align 1 %3, ptr align 1 %agg.tmp.sroa.0.0.copyload, i64 %agg.tmp.sroa.2.0.copyload, i1 false)
  %5 = load ptr, ptr %OutBufCur.i, align 8
  %add.ptr.i = getelementptr inbounds i8, ptr %5, i64 %agg.tmp.sroa.2.0.copyload
  store ptr %add.ptr.i, ptr %OutBufCur.i, align 8
  br label %_ZN4llvh11raw_ostreamlsENS_9StringRefE.exit

_ZN4llvh11raw_ostreamlsENS_9StringRefE.exit:      ; preds = %if.then.i, %if.end.i, %if.then4.i
  %HelpStr = getelementptr inbounds i8, ptr %this, i64 40
  %agg.tmp4.sroa.0.0.copyload = load ptr, ptr %HelpStr, align 8
  %agg.tmp4.sroa.2.0.HelpStr.sroa_idx = getelementptr inbounds i8, ptr %this, i64 48
  %agg.tmp4.sroa.2.0.copyload = load i64, ptr %agg.tmp4.sroa.2.0.HelpStr.sroa_idx, align 8
  %6 = load i64, ptr %agg.tmp.sroa.2.0.ArgStr.sroa_idx, align 8
  %add = add i64 %6, 6
  tail call void @_ZN4llvh2cl6Option12printHelpStrENS_9StringRefEmm(ptr %agg.tmp4.sroa.0.0.copyload, i64 %agg.tmp4.sroa.2.0.copyload, i64 noundef %GlobalWidth, i64 noundef %add)
  ret void
}